ccopy_reg
_reconstructor
p0
(crsvd.rsvd
RSVD
p1
c__builtin__
object
p2
Ntp3
Rp4
(dp5
S'max_rating'
p6
cnumpy.core.multiarray
scalar
p7
(cnumpy
dtype
p8
(S'f4'
p9
I0
I1
tp10
Rp11
(I3
S'<'
p12
NNNI-1
I-1
I0
tp13
bS'\x15\xff\x7f?'
p14
tp15
Rp16
sS'min_improvement'
p17
F1e-07
sS'factors'
p18
I10
sS'num_users'
p19
I49415
sS'lr'
p20
F0.0001
sS'min_rating'
p21
g7
(g11
S'\xed\xba\xd59'
p22
tp23
Rp24
sS'max_epochs'
p25
I10000
sS'reg'
p26
F0.001
sS'num_movies'
p27
I6911
sb.